target datalayout = "e-m:e-p270:32:32-p271:32:32-p272:64:64-i64:64-i128:128-f80:128-n8:16:32:64-S128"
target triple = "x86_64-pc-linux-gnu"

%struct.evhttp_connection = type { %struct.anon, ptr, %struct.event, ptr, i16, ptr, i16, ptr, i64, i64, i32, %struct.timeval, %struct.timeval, %struct.timeval, i32, i32, %struct.timeval, i32, ptr, %struct.evcon_requestq, ptr, ptr, ptr, ptr, %struct.event_callback, ptr, ptr, i32, ptr }
%struct.anon = type { ptr, ptr }
%struct.event = type { %struct.event_callback, %union.anon.1, i32, i16, i16, ptr, %union.anon.3, %struct.timeval }
%union.anon.1 = type { %struct.anon.2 }
%struct.anon.2 = type { ptr, ptr }
%union.anon.3 = type { %struct.anon.4 }
%struct.anon.4 = type { %struct.anon.5, %struct.timeval }
%struct.anon.5 = type { ptr, ptr }
%struct.timeval = type { i64, i64 }
%struct.evcon_requestq = type { ptr, ptr }
%struct.event_callback = type { %struct.anon.0, i16, i8, i8, %union.anon, ptr }
%struct.anon.0 = type { ptr, ptr }
%union.anon = type { ptr }
%struct.evhttp_request = type { %struct.anon.8, ptr, i32, ptr, ptr, ptr, i16, ptr, i32, i32, i64, i64, ptr, ptr, i8, i8, i32, ptr, ptr, i64, i8, ptr, ptr, ptr, ptr, ptr, ptr, ptr, ptr }
%struct.anon.8 = type { ptr, ptr }

; Function Attrs: inlinehint nounwind uwtable
define internal void @evhttp_request_free_auto(ptr noundef %0) #7 {
  %2 = alloca ptr, align 8
  store ptr %0, ptr %2, align 8
  %3 = load ptr, ptr %2, align 8
  %4 = getelementptr inbounds nuw %struct.evhttp_request, ptr %3, i32 0, i32 2
  %5 = load i32, ptr %4, align 8
  %6 = and i32 %5, 4
  %7 = icmp ne i32 %6, 0
  br i1 %7, label %10, label %8

8:                                                ; preds = %1
  %9 = load ptr, ptr %2, align 8
  call void @evhttp_request_free(ptr noundef %9)
  br label %10

10:                                               ; preds = %8, %1
  ret void
}

; Function Attrs: nounwind uwtable
define internal void @evhttp_connection_cb_cleanup(ptr noundef %0) #0 {
  %2 = alloca ptr, align 8
  %3 = alloca %struct.evcon_requestq, align 8
  %4 = alloca %struct.timeval, align 8
  %5 = alloca i32, align 4
  %6 = alloca i32, align 4
  %7 = alloca ptr, align 8
  %8 = alloca ptr, align 8
  store ptr %0, ptr %2, align 8
  call void @llvm.lifetime.start.p0(i64 16, ptr %3) #11
  br label %9

9:                                                ; preds = %1
  br label %10

10:                                               ; preds = %9
  br label %11

11:                                               ; preds = %10
  %12 = load ptr, ptr %2, align 8
  call void @evhttp_connection_reset_(ptr noundef %12, i32 noundef 1)
  %13 = load ptr, ptr %2, align 8
  %14 = getelementptr inbounds nuw %struct.evhttp_connection, ptr %13, i32 0, i32 15
  %15 = load i32, ptr %14, align 4
  %16 = icmp slt i32 %15, 0
  br i1 %16, label %25, label %17

17:                                               ; preds = %11
  %18 = load ptr, ptr %2, align 8
  %19 = getelementptr inbounds nuw %struct.evhttp_connection, ptr %18, i32 0, i32 14
  %20 = load i32, ptr %19, align 8
  %21 = load ptr, ptr %2, align 8
  %22 = getelementptr inbounds nuw %struct.evhttp_connection, ptr %21, i32 0, i32 15
  %23 = load i32, ptr %22, align 4
  %24 = icmp slt i32 %20, %23
  br i1 %24, label %25, label %77

25:                                               ; preds = %17, %11
  call void @llvm.lifetime.start.p0(i64 16, ptr %4) #11
  %26 = load ptr, ptr %2, align 8
  %27 = getelementptr inbounds nuw %struct.evhttp_connection, ptr %26, i32 0, i32 16
  call void @llvm.memcpy.p0.p0.i64(ptr align 8 %4, ptr align 8 %27, i64 16, i1 false)
  call void @llvm.lifetime.start.p0(i64 4, ptr %5) #11
  %28 = load ptr, ptr %2, align 8
  %29 = getelementptr inbounds nuw %struct.evhttp_connection, ptr %28, i32 0, i32 2
  %30 = load ptr, ptr %2, align 8
  %31 = getelementptr inbounds nuw %struct.evhttp_connection, ptr %30, i32 0, i32 25
  %32 = load ptr, ptr %31, align 8
  %33 = load ptr, ptr %2, align 8
  %34 = call i32 @event_assign(ptr noundef %29, ptr noundef %32, i32 noundef -1, i16 noundef signext 0, ptr noundef @evhttp_connection_retry, ptr noundef %33)
  store i32 0, ptr %5, align 4
  br label %35

35:                                               ; preds = %66, %25
  %36 = load i32, ptr %5, align 4
  %37 = load ptr, ptr %2, align 8
  %38 = getelementptr inbounds nuw %struct.evhttp_connection, ptr %37, i32 0, i32 14
  %39 = load i32, ptr %38, align 8
  %40 = icmp slt i32 %36, %39
  br i1 %40, label %41, label %69

41:                                               ; preds = %35
  %42 = getelementptr inbounds nuw %struct.timeval, ptr %4, i32 0, i32 1
  %43 = load i64, ptr %42, align 8
  %44 = mul nsw i64 %43, 2
  store i64 %44, ptr %42, align 8
  %45 = getelementptr inbounds nuw %struct.timeval, ptr %4, i32 0, i32 1
  %46 = load i64, ptr %45, align 8
  %47 = icmp sgt i64 %46, 1000000
  br i1 %47, label %48, label %55

48:                                               ; preds = %41
  %49 = getelementptr inbounds nuw %struct.timeval, ptr %4, i32 0, i32 1
  %50 = load i64, ptr %49, align 8
  %51 = sub nsw i64 %50, 1000000
  store i64 %51, ptr %49, align 8
  %52 = getelementptr inbounds nuw %struct.timeval, ptr %4, i32 0, i32 0
  %53 = load i64, ptr %52, align 8
  %54 = add nsw i64 %53, 1
  store i64 %54, ptr %52, align 8
  br label %55

55:                                               ; preds = %48, %41
  %56 = getelementptr inbounds nuw %struct.timeval, ptr %4, i32 0, i32 0
  %57 = load i64, ptr %56, align 8
  %58 = mul nsw i64 %57, 2
  store i64 %58, ptr %56, align 8
  %59 = getelementptr inbounds nuw %struct.timeval, ptr %4, i32 0, i32 0
  %60 = load i64, ptr %59, align 8
  %61 = icmp sgt i64 %60, 3600
  br i1 %61, label %62, label %65

62:                                               ; preds = %55
  %63 = getelementptr inbounds nuw %struct.timeval, ptr %4, i32 0, i32 0
  store i64 3600, ptr %63, align 8
  %64 = getelementptr inbounds nuw %struct.timeval, ptr %4, i32 0, i32 1
  store i64 0, ptr %64, align 8
  br label %65

65:                                               ; preds = %62, %55
  br label %66

66:                                               ; preds = %65
  %67 = load i32, ptr %5, align 4
  %68 = add nsw i32 %67, 1
  store i32 %68, ptr %5, align 4
  br label %35, !llvm.loop !14

69:                                               ; preds = %35
  %70 = load ptr, ptr %2, align 8
  %71 = getelementptr inbounds nuw %struct.evhttp_connection, ptr %70, i32 0, i32 2
  %72 = call i32 @event_add(ptr noundef %71, ptr noundef %4)
  %73 = load ptr, ptr %2, align 8
  %74 = getelementptr inbounds nuw %struct.evhttp_connection, ptr %73, i32 0, i32 14
  %75 = load i32, ptr %74, align 8
  %76 = add nsw i32 %75, 1
  store i32 %76, ptr %74, align 8
  store i32 1, ptr %6, align 4
  call void @llvm.lifetime.end.p0(i64 4, ptr %5) #11
  call void @llvm.lifetime.end.p0(i64 16, ptr %4) #11
  br label %216

77:                                               ; preds = %17
  br label %78

78:                                               ; preds = %77
  %79 = getelementptr inbounds nuw %struct.evcon_requestq, ptr %3, i32 0, i32 0
  store ptr null, ptr %79, align 8
  %80 = getelementptr inbounds nuw %struct.evcon_requestq, ptr %3, i32 0, i32 0
  %81 = getelementptr inbounds nuw %struct.evcon_requestq, ptr %3, i32 0, i32 1
  store ptr %80, ptr %81, align 8
  br label %82

82:                                               ; preds = %78
  br label %83

83:                                               ; preds = %82
  br label %84

84:                                               ; preds = %148, %83
  %85 = load ptr, ptr %2, align 8
  %86 = getelementptr inbounds nuw %struct.evhttp_connection, ptr %85, i32 0, i32 19
  %87 = getelementptr inbounds nuw %struct.evcon_requestq, ptr %86, i32 0, i32 0
  %88 = load ptr, ptr %87, align 8
  %89 = icmp ne ptr %88, null
  br i1 %89, label %90, label %149

90:                                               ; preds = %84
  call void @llvm.lifetime.start.p0(i64 8, ptr %7) #11
  %91 = load ptr, ptr %2, align 8
  %92 = getelementptr inbounds nuw %struct.evhttp_connection, ptr %91, i32 0, i32 19
  %93 = getelementptr inbounds nuw %struct.evcon_requestq, ptr %92, i32 0, i32 0
  %94 = load ptr, ptr %93, align 8
  store ptr %94, ptr %7, align 8
  br label %95

95:                                               ; preds = %90
  %96 = load ptr, ptr %7, align 8
  %97 = getelementptr inbounds nuw %struct.evhttp_request, ptr %96, i32 0, i32 0
  %98 = getelementptr inbounds nuw %struct.anon.8, ptr %97, i32 0, i32 0
  %99 = load ptr, ptr %98, align 8
  %100 = icmp ne ptr %99, null
  br i1 %100, label %101, label %112

101:                                              ; preds = %95
  %102 = load ptr, ptr %7, align 8
  %103 = getelementptr inbounds nuw %struct.evhttp_request, ptr %102, i32 0, i32 0
  %104 = getelementptr inbounds nuw %struct.anon.8, ptr %103, i32 0, i32 1
  %105 = load ptr, ptr %104, align 8
  %106 = load ptr, ptr %7, align 8
  %107 = getelementptr inbounds nuw %struct.evhttp_request, ptr %106, i32 0, i32 0
  %108 = getelementptr inbounds nuw %struct.anon.8, ptr %107, i32 0, i32 0
  %109 = load ptr, ptr %108, align 8
  %110 = getelementptr inbounds nuw %struct.evhttp_request, ptr %109, i32 0, i32 0
  %111 = getelementptr inbounds nuw %struct.anon.8, ptr %110, i32 0, i32 1
  store ptr %105, ptr %111, align 8
  br label %120

112:                                              ; preds = %95
  %113 = load ptr, ptr %7, align 8
  %114 = getelementptr inbounds nuw %struct.evhttp_request, ptr %113, i32 0, i32 0
  %115 = getelementptr inbounds nuw %struct.anon.8, ptr %114, i32 0, i32 1
  %116 = load ptr, ptr %115, align 8
  %117 = load ptr, ptr %2, align 8
  %118 = getelementptr inbounds nuw %struct.evhttp_connection, ptr %117, i32 0, i32 19
  %119 = getelementptr inbounds nuw %struct.evcon_requestq, ptr %118, i32 0, i32 1
  store ptr %116, ptr %119, align 8
  br label %120

120:                                              ; preds = %112, %101
  %121 = load ptr, ptr %7, align 8
  %122 = getelementptr inbounds nuw %struct.evhttp_request, ptr %121, i32 0, i32 0
  %123 = getelementptr inbounds nuw %struct.anon.8, ptr %122, i32 0, i32 0
  %124 = load ptr, ptr %123, align 8
  %125 = load ptr, ptr %7, align 8
  %126 = getelementptr inbounds nuw %struct.evhttp_request, ptr %125, i32 0, i32 0
  %127 = getelementptr inbounds nuw %struct.anon.8, ptr %126, i32 0, i32 1
  %128 = load ptr, ptr %127, align 8
  store ptr %124, ptr %128, align 8
  br label %129

129:                                              ; preds = %120
  br label %130

130:                                              ; preds = %129
  br label %131

131:                                              ; preds = %130
  %132 = load ptr, ptr %7, align 8
  %133 = getelementptr inbounds nuw %struct.evhttp_request, ptr %132, i32 0, i32 0
  %134 = getelementptr inbounds nuw %struct.anon.8, ptr %133, i32 0, i32 0
  store ptr null, ptr %134, align 8
  %135 = getelementptr inbounds nuw %struct.evcon_requestq, ptr %3, i32 0, i32 1
  %136 = load ptr, ptr %135, align 8
  %137 = load ptr, ptr %7, align 8
  %138 = getelementptr inbounds nuw %struct.evhttp_request, ptr %137, i32 0, i32 0
  %139 = getelementptr inbounds nuw %struct.anon.8, ptr %138, i32 0, i32 1
  store ptr %136, ptr %139, align 8
  %140 = load ptr, ptr %7, align 8
  %141 = getelementptr inbounds nuw %struct.evcon_requestq, ptr %3, i32 0, i32 1
  %142 = load ptr, ptr %141, align 8
  store ptr %140, ptr %142, align 8
  %143 = load ptr, ptr %7, align 8
  %144 = getelementptr inbounds nuw %struct.evhttp_request, ptr %143, i32 0, i32 0
  %145 = getelementptr inbounds nuw %struct.anon.8, ptr %144, i32 0, i32 0
  %146 = getelementptr inbounds nuw %struct.evcon_requestq, ptr %3, i32 0, i32 1
  store ptr %145, ptr %146, align 8
  br label %147

147:                                              ; preds = %131
  br label %148

148:                                              ; preds = %147
  call void @llvm.lifetime.end.p0(i64 8, ptr %7) #11
  br label %84, !llvm.loop !15

149:                                              ; preds = %84
  br label %150

150:                                              ; preds = %190, %149
  %151 = getelementptr inbounds nuw %struct.evcon_requestq, ptr %3, i32 0, i32 0
  %152 = load ptr, ptr %151, align 8
  %153 = icmp ne ptr %152, null
  br i1 %153, label %154, label %201

154:                                              ; preds = %150
  call void @llvm.lifetime.start.p0(i64 8, ptr %8) #11
  %155 = getelementptr inbounds nuw %struct.evcon_requestq, ptr %3, i32 0, i32 0
  %156 = load ptr, ptr %155, align 8
  store ptr %156, ptr %8, align 8
  br label %157

157:                                              ; preds = %154
  %158 = load ptr, ptr %8, align 8
  %159 = getelementptr inbounds nuw %struct.evhttp_request, ptr %158, i32 0, i32 0
  %160 = getelementptr inbounds nuw %struct.anon.8, ptr %159, i32 0, i32 0
  %161 = load ptr, ptr %160, align 8
  %162 = icmp ne ptr %161, null
  br i1 %162, label %163, label %174

163:                                              ; preds = %157
  %164 = load ptr, ptr %8, align 8
  %165 = getelementptr inbounds nuw %struct.evhttp_request, ptr %164, i32 0, i32 0
  %166 = getelementptr inbounds nuw %struct.anon.8, ptr %165, i32 0, i32 1
  %167 = load ptr, ptr %166, align 8
  %168 = load ptr, ptr %8, align 8
  %169 = getelementptr inbounds nuw %struct.evhttp_request, ptr %168, i32 0, i32 0
  %170 = getelementptr inbounds nuw %struct.anon.8, ptr %169, i32 0, i32 0
  %171 = load ptr, ptr %170, align 8
  %172 = getelementptr inbounds nuw %struct.evhttp_request, ptr %171, i32 0, i32 0
  %173 = getelementptr inbounds nuw %struct.anon.8, ptr %172, i32 0, i32 1
  store ptr %167, ptr %173, align 8
  br label %180

174:                                              ; preds = %157
  %175 = load ptr, ptr %8, align 8
  %176 = getelementptr inbounds nuw %struct.evhttp_request, ptr %175, i32 0, i32 0
  %177 = getelementptr inbounds nuw %struct.anon.8, ptr %176, i32 0, i32 1
  %178 = load ptr, ptr %177, align 8
  %179 = getelementptr inbounds nuw %struct.evcon_requestq, ptr %3, i32 0, i32 1
  store ptr %178, ptr %179, align 8
  br label %180

180:                                              ; preds = %174, %163
  %181 = load ptr, ptr %8, align 8
  %182 = getelementptr inbounds nuw %struct.evhttp_request, ptr %181, i32 0, i32 0
  %183 = getelementptr inbounds nuw %struct.anon.8, ptr %182, i32 0, i32 0
  %184 = load ptr, ptr %183, align 8
  %185 = load ptr, ptr %8, align 8
  %186 = getelementptr inbounds nuw %struct.evhttp_request, ptr %185, i32 0, i32 0
  %187 = getelementptr inbounds nuw %struct.anon.8, ptr %186, i32 0, i32 1
  %188 = load ptr, ptr %187, align 8
  store ptr %184, ptr %188, align 8
  br label %189

189:                                              ; preds = %180
  br label %190

190:                                              ; preds = %189
  %191 = load ptr, ptr %8, align 8
  %192 = getelementptr inbounds nuw %struct.evhttp_request, ptr %191, i32 0, i32 1
  store ptr null, ptr %192, align 8
  %193 = load ptr, ptr %8, align 8
  %194 = getelementptr inbounds nuw %struct.evhttp_request, ptr %193, i32 0, i32 22
  %195 = load ptr, ptr %194, align 8
  %196 = load ptr, ptr %8, align 8
  %197 = load ptr, ptr %8, align 8
  %198 = getelementptr inbounds nuw %struct.evhttp_request, ptr %197, i32 0, i32 23
  %199 = load ptr, ptr %198, align 8
  call void %195(ptr noundef %196, ptr noundef %199)
  %200 = load ptr, ptr %8, align 8
  call void @evhttp_request_free_auto(ptr noundef %200)
  call void @llvm.lifetime.end.p0(i64 8, ptr %8) #11
  br label %150, !llvm.loop !16

201:                                              ; preds = %150
  %202 = load ptr, ptr %2, align 8
  %203 = getelementptr inbounds nuw %struct.evhttp_connection, ptr %202, i32 0, i32 19
  %204 = getelementptr inbounds nuw %struct.evcon_requestq, ptr %203, i32 0, i32 0
  %205 = load ptr, ptr %204, align 8
  %206 = icmp eq ptr %205, null
  br i1 %206, label %207, label %215

207:                                              ; preds = %201
  %208 = load ptr, ptr %2, align 8
  %209 = getelementptr inbounds nuw %struct.evhttp_connection, ptr %208, i32 0, i32 10
  %210 = load i32, ptr %209, align 8
  %211 = and i32 %210, 1048576
  %212 = icmp ne i32 %211, 0
  br i1 %212, label %213, label %215

213:                                              ; preds = %207
  %214 = load ptr, ptr %2, align 8
  call void @evhttp_connection_free(ptr noundef %214)
  br label %215

215:                                              ; preds = %213, %207, %201
  store i32 0, ptr %6, align 4
  br label %216

216:                                              ; preds = %215, %69
  call void @llvm.lifetime.end.p0(i64 16, ptr %3) #11
  %217 = load i32, ptr %6, align 4
  switch i32 %217, label %219 [
    i32 0, label %218
    i32 1, label %218
  ]

218:                                              ; preds = %216, %216
  ret void

219:                                              ; preds = %216
  unreachable
}