; Function Attrs: nounwind uwtable
define internal fastcc void @evhttp_connection_cb_cleanup(ptr noundef %0) unnamed_addr #0 {
  %2 = alloca %struct.evcon_requestq, align 8
  %3 = alloca %struct.timeval, align 8
  call void @llvm.lifetime.start.p0(i64 16, ptr nonnull %2) #18
  tail call void @evhttp_connection_reset_(ptr noundef %0, i32 noundef 1)
  %4 = getelementptr inbounds nuw i8, ptr %0, i64 260
  %5 = load i32, ptr %4, align 4
  %6 = icmp slt i32 %5, 0
  br i1 %6, label %11, label %7

7:                                                ; preds = %1
  %8 = getelementptr inbounds nuw i8, ptr %0, i64 256
  %9 = load i32, ptr %8, align 8
  %10 = icmp slt i32 %9, %5
  br i1 %10, label %11, label %36

11:                                               ; preds = %7, %1
  call void @llvm.lifetime.start.p0(i64 16, ptr nonnull %3) #18
  %12 = getelementptr inbounds nuw i8, ptr %0, i64 264
  call void @llvm.memcpy.p0.p0.i64(ptr noundef nonnull align 8 dereferenceable(16) %3, ptr noundef nonnull align 8 dereferenceable(16) %12, i64 16, i1 false)
  %13 = getelementptr inbounds nuw i8, ptr %0, i64 24
  %14 = getelementptr inbounds nuw i8, ptr %0, i64 384
  %15 = load ptr, ptr %14, align 8
  %16 = tail call i32 @event_assign(ptr noundef nonnull %13, ptr noundef %15, i32 noundef -1, i16 noundef signext 0, ptr noundef nonnull @evhttp_connection_retry, ptr noundef nonnull %0) #18
  %17 = getelementptr inbounds nuw i8, ptr %0, i64 256
  %18 = load i32, ptr %17, align 8
  %.promoted = load i64, ptr %3, align 8
  %19 = icmp sgt i32 %18, 0
  br i1 %19, label %.lr.ph58, label %32

.lr.ph58:                                         ; preds = %11
  %20 = getelementptr inbounds nuw i8, ptr %3, i64 8
  %.promoted60 = load i64, ptr %20, align 8
  br label %thread-pre-split

thread-pre-split:                                 ; preds = %.lr.ph58, %thread-pre-split
  %21 = phi i64 [ %.promoted60, %.lr.ph58 ], [ %29, %thread-pre-split ]
  %.056 = phi i32 [ 0, %.lr.ph58 ], [ %31, %thread-pre-split ]
  %.pr5355 = phi i64 [ %.promoted, %.lr.ph58 ], [ %.pr54, %thread-pre-split ]
  %22 = shl nsw i64 %21, 1
  %23 = icmp sgt i64 %21, 500000
  %24 = add nsw i64 %22, -1000000
  %25 = select i1 %23, i64 %24, i64 %22
  %26 = zext i1 %23 to i64
  %27 = add nsw i64 %.pr5355, %26
  %28 = icmp sgt i64 %27, 1800
  %29 = select i1 %28, i64 0, i64 %25
  %30 = tail call i64 @llvm.smin.i64(i64 %27, i64 1800)
  %.pr54 = shl i64 %30, 1
  %31 = add nuw nsw i32 %.056, 1
  %exitcond.not = icmp eq i32 %31, %18
  br i1 %exitcond.not, label %._crit_edge59, label %thread-pre-split, !llvm.loop !15

._crit_edge59:                                    ; preds = %thread-pre-split
  store i64 %29, ptr %20, align 8
  br label %32

32:                                               ; preds = %._crit_edge59, %11
  %.pr53.lcssa = phi i64 [ %.pr54, %._crit_edge59 ], [ %.promoted, %11 ]
  store i64 %.pr53.lcssa, ptr %3, align 8
  %33 = call i32 @event_add(ptr noundef nonnull %13, ptr noundef nonnull %3) #18
  %34 = load i32, ptr %17, align 8
  %35 = add nsw i32 %34, 1
  store i32 %35, ptr %17, align 8
  call void @llvm.lifetime.end.p0(i64 16, ptr nonnull %3) #18
  br label %78

36:                                               ; preds = %7
  store ptr null, ptr %2, align 8
  %37 = getelementptr inbounds nuw i8, ptr %2, i64 8
  %38 = getelementptr inbounds nuw i8, ptr %0, i64 296
  store ptr %2, ptr %37, align 8
  %39 = load ptr, ptr %38, align 8
  %.not50 = icmp eq ptr %39, null
  br i1 %.not50, label %._crit_edge.thread, label %.lr.ph

.lr.ph:                                           ; preds = %36
  %40 = getelementptr inbounds nuw i8, ptr %0, i64 304
  br label %41

.preheader:                                       ; preds = %49
  %.pre = load ptr, ptr %2, align 8
  %.not4551 = icmp eq ptr %.pre, null
  br i1 %.not4551, label %._crit_edge.thread, label %.lr.ph52

41:                                               ; preds = %.lr.ph, %49
  %42 = phi ptr [ %39, %.lr.ph ], [ %53, %49 ]
  %43 = load ptr, ptr %42, align 8
  %.not48 = icmp eq ptr %43, null
  %44 = getelementptr inbounds nuw i8, ptr %42, i64 8
  %45 = load ptr, ptr %44, align 8
  br i1 %.not48, label %48, label %46

46:                                               ; preds = %41
  %47 = getelementptr inbounds nuw i8, ptr %43, i64 8
  store ptr %45, ptr %47, align 8
  br label %49

48:                                               ; preds = %41
  store ptr %45, ptr %40, align 8
  br label %49

49:                                               ; preds = %48, %46
  %50 = load ptr, ptr %42, align 8
  %51 = getelementptr inbounds nuw i8, ptr %42, i64 8
  store ptr %50, ptr %45, align 8
  store ptr null, ptr %42, align 8
  %52 = load ptr, ptr %37, align 8
  store ptr %52, ptr %51, align 8
  store ptr %42, ptr %52, align 8
  store ptr %42, ptr %37, align 8
  %53 = load ptr, ptr %38, align 8
  %.not = icmp eq ptr %53, null
  br i1 %.not, label %.preheader, label %41, !llvm.loop !16

.lr.ph52:                                         ; preds = %.preheader, %evhttp_request_free_auto.exit
  %54 = phi ptr [ %72, %evhttp_request_free_auto.exit ], [ %.pre, %.preheader ]
  %55 = load ptr, ptr %54, align 8
  %.not47 = icmp eq ptr %55, null
  %56 = getelementptr inbounds nuw i8, ptr %54, i64 8
  %57 = load ptr, ptr %56, align 8
  br i1 %.not47, label %60, label %58

58:                                               ; preds = %.lr.ph52
  %59 = getelementptr inbounds nuw i8, ptr %55, i64 8
  store ptr %57, ptr %59, align 8
  br label %61

60:                                               ; preds = %.lr.ph52
  store ptr %57, ptr %37, align 8
  br label %61

61:                                               ; preds = %60, %58
  %62 = load ptr, ptr %54, align 8
  store ptr %62, ptr %57, align 8
  %63 = getelementptr inbounds nuw i8, ptr %54, i64 16
  store ptr null, ptr %63, align 8
  %64 = getelementptr inbounds nuw i8, ptr %54, i64 160
  %65 = load ptr, ptr %64, align 8
  %66 = getelementptr inbounds nuw i8, ptr %54, i64 168
  %67 = load ptr, ptr %66, align 8
  call void %65(ptr noundef nonnull %54, ptr noundef %67) #18
  %68 = getelementptr inbounds nuw i8, ptr %54, i64 24
  %69 = load i32, ptr %68, align 8
  %70 = and i32 %69, 4
  %.not.i = icmp eq i32 %70, 0
  br i1 %.not.i, label %71, label %evhttp_request_free_auto.exit

71:                                               ; preds = %61
  call void @evhttp_request_free(ptr noundef nonnull %54)
  br label %evhttp_request_free_auto.exit

evhttp_request_free_auto.exit:                    ; preds = %61, %71
  %72 = load ptr, ptr %2, align 8
  %.not45 = icmp eq ptr %72, null
  br i1 %.not45, label %._crit_edge, label %.lr.ph52, !llvm.loop !17

._crit_edge:                                      ; preds = %evhttp_request_free_auto.exit
  %.pre61 = load ptr, ptr %38, align 8
  %73 = icmp eq ptr %.pre61, null
  br i1 %73, label %._crit_edge.thread, label %78

._crit_edge.thread:                               ; preds = %36, %.preheader, %._crit_edge
  %74 = getelementptr inbounds nuw i8, ptr %0, i64 200
  %75 = load i32, ptr %74, align 8
  %76 = and i32 %75, 1048576
  %.not46 = icmp eq i32 %76, 0
  br i1 %.not46, label %78, label %77

77:                                               ; preds = %._crit_edge.thread
  call void @evhttp_connection_free(ptr noundef nonnull %0)
  br label %78

78:                                               ; preds = %._crit_edge, %._crit_edge.thread, %77, %32
  call void @llvm.lifetime.end.p0(i64 16, ptr nonnull %2) #18
  ret void
}